target datalayout = "e-m:e-p270:32:32-p271:32:32-p272:64:64-i64:64-i128:128-f80:128-n8:16:32:64-S128"
target triple = "x86_64-pc-linux-gnu"

%class.JvmtiRawMonitor = type { ptr, i32, ptr, ptr, i32, ptr }

; Function Attrs: mustprogress nounwind uwtable
define hidden noundef i32 @_ZN15JvmtiRawMonitor13raw_notifyAllEP6Thread(ptr noundef nonnull align 8 dereferenceable(48) %0, ptr noundef %1) #1 align 2 {
  %3 = alloca i32, align 4
  %4 = alloca ptr, align 8
  %5 = alloca ptr, align 8
  store ptr %0, ptr %4, align 8
  store ptr %1, ptr %5, align 8
  %6 = load ptr, ptr %4, align 8
  %7 = load ptr, ptr %5, align 8
  %8 = getelementptr inbounds %class.JvmtiRawMonitor, ptr %6, i32 0, i32 0
  %9 = load volatile ptr, ptr %8, align 8
  %10 = icmp ne ptr %7, %9
  br i1 %10, label %11, label %12

11:                                               ; preds = %2
  store i32 1, ptr %3, align 4
  br label %14

12:                                               ; preds = %2
  %13 = load ptr, ptr %5, align 8
  call void @_ZN15JvmtiRawMonitor13simple_notifyEP6Threadb(ptr noundef nonnull align 8 dereferenceable(48) %6, ptr noundef %13, i1 noundef zeroext true)
  store i32 0, ptr %3, align 4
  br label %14

14:                                               ; preds = %12, %11
  %15 = load i32, ptr %3, align 4
  ret i32 %15
}