; Function Attrs: mustprogress nounwind uwtable
define hidden noundef range(i32 0, 2) i32 @_ZN15JvmtiRawMonitor13raw_notifyAllEP6Thread(ptr noundef nonnull align 8 dereferenceable(48) %0, ptr noundef %1) local_unnamed_addr #2 align 2 {
  %3 = load volatile ptr, ptr %0, align 8
  %.not = icmp eq ptr %3, %1
  br i1 %.not, label %4, label %5

4:                                                ; preds = %2
  tail call void @_ZN15JvmtiRawMonitor13simple_notifyEP6Threadb(ptr noundef nonnull align 8 dereferenceable(48) %0, ptr noundef %1, i1 noundef zeroext true)
  br label %5

5:                                                ; preds = %2, %4
  %.0 = phi i32 [ 0, %4 ], [ 1, %2 ]
  ret i32 %.0
}